	.file	"main.cpp"
	.text
.Ltext0:
	.file 0 "/home/altynbek_y/auca-ds-2022/lab01/p01" "main.cpp"
	.local	_ZStL8__ioinit
	.comm	_ZStL8__ioinit,1,1
	.section	.rodata
.LC0:
	.string	"Hello, C++ "
.LC1:
	.string	"!\n"
	.text
	.globl	main
	.type	main, @function
main:
.LFB1863:
	.file 1 "main.cpp"
	.loc 1 5 1
	.cfi_startproc
	endbr64
	pushq	%rbp
	.cfi_def_cfa_offset 16
	.cfi_offset 6, -16
	movq	%rsp, %rbp
	.cfi_def_cfa_register 6
	subq	$16, %rsp
	movl	%edi, -4(%rbp)
	movq	%rsi, -16(%rbp)
	.loc 1 6 18
	leaq	.LC0(%rip), %rax
	movq	%rax, %rsi
	leaq	_ZSt4cout(%rip), %rax
	movq	%rax, %rdi
	call	_ZStlsISt11char_traitsIcEERSt13basic_ostreamIcT_ES5_PKc@PLT
	.loc 1 6 35
	movl	$201703, %esi
	movq	%rax, %rdi
	call	_ZNSolsEl@PLT
	movq	%rax, %rdx
	.loc 1 6 46
	leaq	.LC1(%rip), %rax
	movq	%rax, %rsi
	movq	%rdx, %rdi
	call	_ZStlsISt11char_traitsIcEERSt13basic_ostreamIcT_ES5_PKc@PLT
	.loc 1 7 1
	movl	$0, %eax
	leave
	.cfi_def_cfa 7, 8
	ret
	.cfi_endproc
.LFE1863:
	.size	main, .-main
	.type	_Z41__static_initialization_and_destruction_0ii, @function
_Z41__static_initialization_and_destruction_0ii:
.LFB2380:
	.loc 1 7 1
	.cfi_startproc
	endbr64
	pushq	%rbp
	.cfi_def_cfa_offset 16
	.cfi_offset 6, -16
	movq	%rsp, %rbp
	.cfi_def_cfa_register 6
	subq	$16, %rsp
	movl	%edi, -4(%rbp)
	movl	%esi, -8(%rbp)
	.loc 1 7 1
	cmpl	$1, -4(%rbp)
	jne	.L5
	.loc 1 7 1 is_stmt 0 discriminator 1
	cmpl	$65535, -8(%rbp)
	jne	.L5
	.file 2 "/usr/include/c++/11/iostream"
	.loc 2 74 25 is_stmt 1
	leaq	_ZStL8__ioinit(%rip), %rax
	movq	%rax, %rdi
	call	_ZNSt8ios_base4InitC1Ev@PLT
	leaq	__dso_handle(%rip), %rax
	movq	%rax, %rdx
	leaq	_ZStL8__ioinit(%rip), %rax
	movq	%rax, %rsi
	movq	_ZNSt8ios_base4InitD1Ev@GOTPCREL(%rip), %rax
	movq	%rax, %rdi
	call	__cxa_atexit@PLT
.L5:
	.loc 1 7 1
	nop
	leave
	.cfi_def_cfa 7, 8
	ret
	.cfi_endproc
.LFE2380:
	.size	_Z41__static_initialization_and_destruction_0ii, .-_Z41__static_initialization_and_destruction_0ii
	.type	_GLOBAL__sub_I_main, @function
_GLOBAL__sub_I_main:
.LFB2381:
	.loc 1 7 1
	.cfi_startproc
	endbr64
	pushq	%rbp
	.cfi_def_cfa_offset 16
	.cfi_offset 6, -16
	movq	%rsp, %rbp
	.cfi_def_cfa_register 6
	.loc 1 7 1
	movl	$65535, %esi
	movl	$1, %edi
	call	_Z41__static_initialization_and_destruction_0ii
	popq	%rbp
	.cfi_def_cfa 7, 8
	ret
	.cfi_endproc
.LFE2381:
	.size	_GLOBAL__sub_I_main, .-_GLOBAL__sub_I_main
	.section	.init_array,"aw"
	.align 8
	.quad	_GLOBAL__sub_I_main
	.text
.Letext0:
	.file 3 "<built-in>"
	.file 4 "/usr/lib/gcc/x86_64-linux-gnu/11/include/stddef.h"
	.file 5 "/usr/include/x86_64-linux-gnu/bits/types/wint_t.h"
	.file 6 "/usr/include/x86_64-linux-gnu/bits/types/__mbstate_t.h"
	.file 7 "/usr/include/x86_64-linux-gnu/bits/types/mbstate_t.h"
	.file 8 "/usr/include/x86_64-linux-gnu/bits/types/__FILE.h"
	.file 9 "/usr/include/x86_64-linux-gnu/bits/types/struct_FILE.h"
	.file 10 "/usr/include/x86_64-linux-gnu/bits/types/FILE.h"
	.file 11 "/usr/include/c++/11/cwchar"
	.file 12 "/usr/include/c++/11/bits/exception_ptr.h"
	.file 13 "/usr/include/x86_64-linux-gnu/c++/11/bits/c++config.h"
	.file 14 "/usr/include/c++/11/type_traits"
	.file 15 "/usr/include/c++/11/debug/debug.h"
	.file 16 "/usr/include/c++/11/bits/char_traits.h"
	.file 17 "/usr/include/c++/11/cstdint"
	.file 18 "/usr/include/c++/11/clocale"
	.file 19 "/usr/include/c++/11/cstdlib"
	.file 20 "/usr/include/c++/11/cstdio"
	.file 21 "/usr/include/c++/11/bits/ios_base.h"
	.file 22 "/usr/include/c++/11/cwctype"
	.file 23 "/usr/include/c++/11/ostream"
	.file 24 "/usr/include/c++/11/iosfwd"
	.file 25 "/usr/include/c++/11/bits/postypes.h"
	.file 26 "/usr/include/wchar.h"
	.file 27 "/usr/include/x86_64-linux-gnu/bits/types/struct_tm.h"
	.file 28 "/usr/include/c++/11/bits/predefined_ops.h"
	.file 29 "/usr/include/x86_64-linux-gnu/bits/types.h"
	.file 30 "/usr/include/x86_64-linux-gnu/bits/stdint-intn.h"
	.file 31 "/usr/include/x86_64-linux-gnu/bits/stdint-uintn.h"
	.file 32 "/usr/include/stdint.h"
	.file 33 "/usr/include/locale.h"
	.file 34 "/usr/include/stdlib.h"
	.file 35 "/usr/include/x86_64-linux-gnu/bits/types/__fpos_t.h"
	.file 36 "/usr/include/stdio.h"
	.file 37 "/usr/include/x86_64-linux-gnu/bits/wctype-wchar.h"
	.file 38 "/usr/include/wctype.h"
	.file 39 "/usr/include/c++/11/system_error"
	.section	.note.GNU-stack,"",@progbits
	.section	.note.gnu.property,"a"
	.align 8
	.long	1f - 0f
	.long	4f - 1f
	.long	5
0:
	.string	"GNU"
1:
	.align 8
	.long	0xc0000002
	.long	3f - 2f
2:
	.long	0x3
3:
	.align 8
4:
